; Function Attrs: mustprogress uwtable
define dso_local void @_ZN4absl13cord_internal11CordzHandle6DeleteEPS1_(ptr noundef %handle) local_unnamed_addr #0 align 2 personality ptr @__gxx_personality_v0 {
entry:
  %tobool.not = icmp eq ptr %handle, null
  br i1 %tobool.not, label %if.end8, label %if.then

if.then:                                          ; preds = %entry
  %0 = load atomic i8, ptr @_ZGVZN4absl13cord_internal12_GLOBAL__N_111GlobalQueueEvE12global_queue acquire, align 8
  %guard.uninitialized.i = icmp eq i8 %0, 0
  br i1 %guard.uninitialized.i, label %init.check.i, label %_ZN4absl13cord_internal12_GLOBAL__N_111GlobalQueueEv.exit, !prof !5

init.check.i:                                     ; preds = %if.then
  %1 = tail call i32 @__cxa_guard_acquire(ptr nonnull @_ZGVZN4absl13cord_internal12_GLOBAL__N_111GlobalQueueEvE12global_queue) #11
  %tobool.not.i = icmp eq i32 %1, 0
  br i1 %tobool.not.i, label %_ZN4absl13cord_internal12_GLOBAL__N_111GlobalQueueEv.exit, label %init.i

init.i:                                           ; preds = %init.check.i
  %call.i = invoke noalias noundef nonnull dereferenceable(16) ptr @_Znwm(i64 noundef 16) #12
          to label %invoke.cont2.i unwind label %lpad.i

invoke.cont2.i:                                   ; preds = %init.i
  tail call void @llvm.memset.p0.i64(ptr noundef nonnull align 8 dereferenceable(16) %call.i, i8 0, i64 16, i1 false)
  store ptr %call.i, ptr @_ZZN4absl13cord_internal12_GLOBAL__N_111GlobalQueueEvE12global_queue, align 8
  tail call void @__cxa_guard_release(ptr nonnull @_ZGVZN4absl13cord_internal12_GLOBAL__N_111GlobalQueueEvE12global_queue) #11
  br label %_ZN4absl13cord_internal12_GLOBAL__N_111GlobalQueueEv.exit

common.resume:                                    ; preds = %lpad.i.i, %lpad.i
  %common.resume.op = phi { ptr, i32 } [ %2, %lpad.i ], [ %8, %lpad.i.i ]
  tail call void @__cxa_guard_abort(ptr nonnull @_ZGVZN4absl13cord_internal12_GLOBAL__N_111GlobalQueueEvE12global_queue) #11
  resume { ptr, i32 } %common.resume.op

lpad.i:                                           ; preds = %init.i
  %2 = landingpad { ptr, i32 }
          cleanup
  br label %common.resume

_ZN4absl13cord_internal12_GLOBAL__N_111GlobalQueueEv.exit: ; preds = %if.then, %init.check.i, %invoke.cont2.i
  %3 = load ptr, ptr @_ZZN4absl13cord_internal12_GLOBAL__N_111GlobalQueueEvE12global_queue, align 8
  %is_snapshot_.i = getelementptr inbounds i8, ptr %handle, i64 8
  %4 = load i8, ptr %is_snapshot_.i, align 8
  %5 = and i8 %4, 1
  %tobool.not.i10 = icmp eq i8 %5, 0
  br i1 %tobool.not.i10, label %lor.rhs.i, label %delete.notnull

lor.rhs.i:                                        ; preds = %_ZN4absl13cord_internal12_GLOBAL__N_111GlobalQueueEv.exit
  %6 = load atomic i8, ptr @_ZGVZN4absl13cord_internal12_GLOBAL__N_111GlobalQueueEvE12global_queue acquire, align 8
  %guard.uninitialized.i.i = icmp eq i8 %6, 0
  br i1 %guard.uninitialized.i.i, label %init.check.i.i, label %_ZNK4absl13cord_internal11CordzHandle12SafeToDeleteEv.exit, !prof !5

init.check.i.i:                                   ; preds = %lor.rhs.i
  %7 = tail call i32 @__cxa_guard_acquire(ptr nonnull @_ZGVZN4absl13cord_internal12_GLOBAL__N_111GlobalQueueEvE12global_queue) #11
  %tobool.not.i.i = icmp eq i32 %7, 0
  br i1 %tobool.not.i.i, label %_ZNK4absl13cord_internal11CordzHandle12SafeToDeleteEv.exit, label %init.i.i

init.i.i:                                         ; preds = %init.check.i.i
  %call.i.i = invoke noalias noundef nonnull dereferenceable(16) ptr @_Znwm(i64 noundef 16) #12
          to label %invoke.cont2.i.i unwind label %lpad.i.i

invoke.cont2.i.i:                                 ; preds = %init.i.i
  tail call void @llvm.memset.p0.i64(ptr noundef nonnull align 8 dereferenceable(16) %call.i.i, i8 0, i64 16, i1 false)
  store ptr %call.i.i, ptr @_ZZN4absl13cord_internal12_GLOBAL__N_111GlobalQueueEvE12global_queue, align 8
  tail call void @__cxa_guard_release(ptr nonnull @_ZGVZN4absl13cord_internal12_GLOBAL__N_111GlobalQueueEvE12global_queue) #11
  br label %_ZNK4absl13cord_internal11CordzHandle12SafeToDeleteEv.exit

lpad.i.i:                                         ; preds = %init.i.i
  %8 = landingpad { ptr, i32 }
          cleanup
  br label %common.resume

_ZNK4absl13cord_internal11CordzHandle12SafeToDeleteEv.exit: ; preds = %lor.rhs.i, %init.check.i.i, %invoke.cont2.i.i
  %9 = load ptr, ptr @_ZZN4absl13cord_internal12_GLOBAL__N_111GlobalQueueEvE12global_queue, align 8
  %dq_tail.i.i = getelementptr inbounds i8, ptr %9, i64 8
  %10 = load atomic i64, ptr %dq_tail.i.i acquire, align 8
  %cmp.i.i = icmp eq i64 %10, 0
  br i1 %cmp.i.i, label %delete.notnull, label %if.then2

if.then2:                                         ; preds = %_ZNK4absl13cord_internal11CordzHandle12SafeToDeleteEv.exit
  tail call void @_ZN4absl5Mutex4LockEv(ptr noundef nonnull align 8 dereferenceable(8) %3)
  %dq_tail3 = getelementptr inbounds i8, ptr %3, i64 8
  %11 = load atomic i64, ptr %dq_tail3 acquire, align 8
  %cmp.not.not = icmp eq i64 %11, 0
  br i1 %cmp.not.not, label %cleanup, label %if.then5

if.then5:                                         ; preds = %if.then2
  %atomic-temp.i.0.i = inttoptr i64 %11 to ptr
  %dq_prev_ = getelementptr inbounds i8, ptr %handle, i64 16
  store ptr %atomic-temp.i.0.i, ptr %dq_prev_, align 8
  %dq_next_ = getelementptr inbounds i8, ptr %atomic-temp.i.0.i, i64 24
  store ptr %handle, ptr %dq_next_, align 8
  %12 = ptrtoint ptr %handle to i64
  store atomic i64 %12, ptr %dq_tail3 release, align 8
  br label %cleanup

cleanup:                                          ; preds = %if.then2, %if.then5
  invoke void @_ZN4absl5Mutex6UnlockEv(ptr noundef nonnull align 8 dereferenceable(8) %3)
          to label %_ZN4absl9MutexLockD2Ev.exit unwind label %terminate.lpad.i

terminate.lpad.i:                                 ; preds = %cleanup
  %13 = landingpad { ptr, i32 }
          catch ptr null
  %14 = extractvalue { ptr, i32 } %13, 0
  tail call void @__clang_call_terminate(ptr %14) #13
  unreachable

_ZN4absl9MutexLockD2Ev.exit:                      ; preds = %cleanup
  br i1 %cmp.not.not, label %delete.notnull, label %if.end8

delete.notnull:                                   ; preds = %_ZN4absl13cord_internal12_GLOBAL__N_111GlobalQueueEv.exit, %_ZNK4absl13cord_internal11CordzHandle12SafeToDeleteEv.exit, %_ZN4absl9MutexLockD2Ev.exit
  %vtable = load ptr, ptr %handle, align 8
  %vfn = getelementptr inbounds i8, ptr %vtable, i64 8
  %15 = load ptr, ptr %vfn, align 8
  tail call void %15(ptr noundef nonnull align 8 dereferenceable(32) %handle) #11
  br label %if.end8

if.end8:                                          ; preds = %_ZN4absl9MutexLockD2Ev.exit, %delete.notnull, %entry
  ret void
}